target datalayout = "e-m:e-p270:32:32-p271:32:32-p272:64:64-i64:64-i128:128-f80:128-n8:16:32:64-S128"
target triple = "x86_64-pc-linux-gnu"

%struct.mcomp_t = type { i32, ptr, ptr, ptr }

; Function Attrs: nounwind uwtable
define internal void @get_member_types(i64 noundef %0, ptr noundef %1) #0 {
  %3 = alloca i64, align 8
  %4 = alloca ptr, align 8
  %5 = alloca i32, align 4
  %6 = alloca i32, align 4
  %7 = alloca i64, align 8
  %8 = alloca i32, align 4
  store i64 %0, ptr %3, align 8
  store ptr %1, ptr %4, align 8
  %9 = load i64, ptr %3, align 8
  %10 = icmp sle i64 %9, 0
  br i1 %10, label %14, label %11

11:                                               ; preds = %2
  %12 = load ptr, ptr %4, align 8
  %13 = icmp ne ptr %12, null
  br i1 %13, label %15, label %14

14:                                               ; preds = %11, %2
  br label %121

15:                                               ; preds = %11
  %16 = load i64, ptr %3, align 8
  %17 = call i32 @H5Tget_class(i64 noundef %16)
  store i32 %17, ptr %5, align 4
  %18 = load i32, ptr %5, align 4
  %19 = icmp eq i32 %18, 10
  br i1 %19, label %23, label %20

20:                                               ; preds = %15
  %21 = load i32, ptr %5, align 4
  %22 = icmp eq i32 %21, 9
  br i1 %22, label %23, label %30

23:                                               ; preds = %20, %15
  %24 = load i64, ptr %3, align 8
  %25 = call i64 @H5Tget_super(i64 noundef %24)
  store i64 %25, ptr %7, align 8
  %26 = load i64, ptr %7, align 8
  %27 = load ptr, ptr %4, align 8
  call void @get_member_types(i64 noundef %26, ptr noundef %27)
  %28 = load i64, ptr %7, align 8
  %29 = call i32 @H5Tclose(i64 noundef %28)
  br label %121

30:                                               ; preds = %20
  %31 = load i32, ptr %5, align 4
  %32 = icmp eq i32 %31, 6
  br i1 %32, label %33, label %120

33:                                               ; preds = %30
  %34 = load i64, ptr %3, align 8
  %35 = call i32 @H5Tget_nmembers(i64 noundef %34)
  store i32 %35, ptr %8, align 4
  %36 = icmp sle i32 %35, 0
  br i1 %36, label %37, label %38

37:                                               ; preds = %33
  br label %121

38:                                               ; preds = %33
  %39 = load i32, ptr %8, align 4
  %40 = load ptr, ptr %4, align 8
  %41 = getelementptr inbounds %struct.mcomp_t, ptr %40, i32 0, i32 0
  store i32 %39, ptr %41, align 8
  %42 = load ptr, ptr %4, align 8
  %43 = getelementptr inbounds %struct.mcomp_t, ptr %42, i32 0, i32 0
  %44 = load i32, ptr %43, align 8
  %45 = zext i32 %44 to i64
  %46 = call noalias ptr @calloc(i64 noundef %45, i64 noundef 8) #11
  %47 = load ptr, ptr %4, align 8
  %48 = getelementptr inbounds %struct.mcomp_t, ptr %47, i32 0, i32 1
  store ptr %46, ptr %48, align 8
  %49 = load ptr, ptr %4, align 8
  %50 = getelementptr inbounds %struct.mcomp_t, ptr %49, i32 0, i32 0
  %51 = load i32, ptr %50, align 8
  %52 = zext i32 %51 to i64
  %53 = call noalias ptr @calloc(i64 noundef %52, i64 noundef 8) #11
  %54 = load ptr, ptr %4, align 8
  %55 = getelementptr inbounds %struct.mcomp_t, ptr %54, i32 0, i32 2
  store ptr %53, ptr %55, align 8
  %56 = load ptr, ptr %4, align 8
  %57 = getelementptr inbounds %struct.mcomp_t, ptr %56, i32 0, i32 0
  %58 = load i32, ptr %57, align 8
  %59 = zext i32 %58 to i64
  %60 = call noalias ptr @calloc(i64 noundef %59, i64 noundef 8) #11
  %61 = load ptr, ptr %4, align 8
  %62 = getelementptr inbounds %struct.mcomp_t, ptr %61, i32 0, i32 3
  store ptr %60, ptr %62, align 8
  store i32 0, ptr %6, align 4
  br label %63

63:                                               ; preds = %116, %38
  %64 = load i32, ptr %6, align 4
  %65 = load ptr, ptr %4, align 8
  %66 = getelementptr inbounds %struct.mcomp_t, ptr %65, i32 0, i32 0
  %67 = load i32, ptr %66, align 8
  %68 = icmp ult i32 %64, %67
  br i1 %68, label %69, label %119

69:                                               ; preds = %63
  %70 = load i64, ptr %3, align 8
  %71 = load i32, ptr %6, align 4
  %72 = call i64 @H5Tget_member_type(i64 noundef %70, i32 noundef %71)
  %73 = load ptr, ptr %4, align 8
  %74 = getelementptr inbounds %struct.mcomp_t, ptr %73, i32 0, i32 1
  %75 = load ptr, ptr %74, align 8
  %76 = load i32, ptr %6, align 4
  %77 = zext i32 %76 to i64
  %78 = getelementptr inbounds i64, ptr %75, i64 %77
  store i64 %72, ptr %78, align 8
  %79 = load i64, ptr %3, align 8
  %80 = load i32, ptr %6, align 4
  %81 = call i64 @H5Tget_member_offset(i64 noundef %79, i32 noundef %80)
  %82 = load ptr, ptr %4, align 8
  %83 = getelementptr inbounds %struct.mcomp_t, ptr %82, i32 0, i32 2
  %84 = load ptr, ptr %83, align 8
  %85 = load i32, ptr %6, align 4
  %86 = zext i32 %85 to i64
  %87 = getelementptr inbounds i64, ptr %84, i64 %86
  store i64 %81, ptr %87, align 8
  %88 = call noalias ptr @malloc(i64 noundef 32) #12
  %89 = load ptr, ptr %4, align 8
  %90 = getelementptr inbounds %struct.mcomp_t, ptr %89, i32 0, i32 3
  %91 = load ptr, ptr %90, align 8
  %92 = load i32, ptr %6, align 4
  %93 = zext i32 %92 to i64
  %94 = getelementptr inbounds ptr, ptr %91, i64 %93
  store ptr %88, ptr %94, align 8
  %95 = load ptr, ptr %4, align 8
  %96 = getelementptr inbounds %struct.mcomp_t, ptr %95, i32 0, i32 3
  %97 = load ptr, ptr %96, align 8
  %98 = load i32, ptr %6, align 4
  %99 = zext i32 %98 to i64
  %100 = getelementptr inbounds ptr, ptr %97, i64 %99
  %101 = load ptr, ptr %100, align 8
  call void @llvm.memset.p0.i64(ptr align 8 %101, i8 0, i64 32, i1 false)
  %102 = load ptr, ptr %4, align 8
  %103 = getelementptr inbounds %struct.mcomp_t, ptr %102, i32 0, i32 1
  %104 = load ptr, ptr %103, align 8
  %105 = load i32, ptr %6, align 4
  %106 = zext i32 %105 to i64
  %107 = getelementptr inbounds i64, ptr %104, i64 %106
  %108 = load i64, ptr %107, align 8
  %109 = load ptr, ptr %4, align 8
  %110 = getelementptr inbounds %struct.mcomp_t, ptr %109, i32 0, i32 3
  %111 = load ptr, ptr %110, align 8
  %112 = load i32, ptr %6, align 4
  %113 = zext i32 %112 to i64
  %114 = getelementptr inbounds ptr, ptr %111, i64 %113
  %115 = load ptr, ptr %114, align 8
  call void @get_member_types(i64 noundef %108, ptr noundef %115)
  br label %116

116:                                              ; preds = %69
  %117 = load i32, ptr %6, align 4
  %118 = add i32 %117, 1
  store i32 %118, ptr %6, align 4
  br label %63

119:                                              ; preds = %63
  br label %120

120:                                              ; preds = %119, %30
  br label %121

121:                                              ; preds = %120, %37, %23, %14
  ret void
}