; Function Attrs: nounwind uwtable
define internal fastcc void @get_member_types(i64 noundef %0, ptr noundef %1) unnamed_addr #0 {
  %3 = icmp sgt i64 %0, 0
  %4 = icmp ne ptr %1, null
  %or.cond = and i1 %3, %4
  br i1 %or.cond, label %5, label %common.ret46

5:                                                ; preds = %2
  %6 = tail call i32 @H5Tget_class(i64 noundef %0) #14
  %7 = add i32 %6, -9
  %or.cond3 = icmp ult i32 %7, 2
  br i1 %or.cond3, label %8, label %11

common.ret46:                                     ; preds = %11, %13, %2, %.lr.ph, %8
  ret void

8:                                                ; preds = %5
  %9 = tail call i64 @H5Tget_super(i64 noundef %0) #14
  tail call fastcc void @get_member_types(i64 noundef %9, ptr noundef nonnull %1)
  %10 = tail call i32 @H5Tclose(i64 noundef %9) #14
  br label %common.ret46

11:                                               ; preds = %5
  %12 = icmp eq i32 %6, 6
  br i1 %12, label %13, label %common.ret46

13:                                               ; preds = %11
  %14 = tail call i32 @H5Tget_nmembers(i64 noundef %0) #14
  %15 = icmp slt i32 %14, 1
  br i1 %15, label %common.ret46, label %.lr.ph.preheader

.lr.ph.preheader:                                 ; preds = %13
  store i32 %14, ptr %1, align 8
  %16 = zext nneg i32 %14 to i64
  %17 = tail call noalias ptr @calloc(i64 noundef %16, i64 noundef 8) #15
  %18 = getelementptr inbounds i8, ptr %1, i64 8
  store ptr %17, ptr %18, align 8
  %19 = tail call noalias ptr @calloc(i64 noundef %16, i64 noundef 8) #15
  %20 = getelementptr inbounds i8, ptr %1, i64 16
  store ptr %19, ptr %20, align 8
  %21 = tail call noalias ptr @calloc(i64 noundef %16, i64 noundef 8) #15
  %22 = getelementptr inbounds i8, ptr %1, i64 24
  store ptr %21, ptr %22, align 8
  br label %.lr.ph

.lr.ph:                                           ; preds = %.lr.ph.preheader, %.lr.ph
  %indvars.iv = phi i64 [ 0, %.lr.ph.preheader ], [ %indvars.iv.next, %.lr.ph ]
  %23 = trunc nuw i64 %indvars.iv to i32
  %24 = tail call i64 @H5Tget_member_type(i64 noundef %0, i32 noundef %23) #14
  %25 = load ptr, ptr %18, align 8
  %26 = getelementptr inbounds i64, ptr %25, i64 %indvars.iv
  store i64 %24, ptr %26, align 8
  %27 = tail call i64 @H5Tget_member_offset(i64 noundef %0, i32 noundef %23) #14
  %28 = load ptr, ptr %20, align 8
  %29 = getelementptr inbounds i64, ptr %28, i64 %indvars.iv
  store i64 %27, ptr %29, align 8
  %30 = tail call noalias dereferenceable_or_null(32) ptr @malloc(i64 noundef 32) #16
  %31 = load ptr, ptr %22, align 8
  %32 = getelementptr inbounds ptr, ptr %31, i64 %indvars.iv
  store ptr %30, ptr %32, align 8
  %33 = load ptr, ptr %22, align 8
  %34 = getelementptr inbounds ptr, ptr %33, i64 %indvars.iv
  %35 = load ptr, ptr %34, align 8
  tail call void @llvm.memset.p0.i64(ptr noundef nonnull align 8 dereferenceable(32) %35, i8 0, i64 32, i1 false)
  %36 = load ptr, ptr %18, align 8
  %37 = getelementptr inbounds i64, ptr %36, i64 %indvars.iv
  %38 = load i64, ptr %37, align 8
  %39 = load ptr, ptr %22, align 8
  %40 = getelementptr inbounds ptr, ptr %39, i64 %indvars.iv
  %41 = load ptr, ptr %40, align 8
  tail call fastcc void @get_member_types(i64 noundef %38, ptr noundef %41)
  %indvars.iv.next = add nuw nsw i64 %indvars.iv, 1
  %42 = load i32, ptr %1, align 8
  %43 = zext i32 %42 to i64
  %44 = icmp ult i64 %indvars.iv.next, %43
  br i1 %44, label %.lr.ph, label %common.ret46
}